; Function Attrs: mustprogress nofree norecurse nosync nounwind willreturn memory(read, inaccessiblemem: none) uwtable
define noundef zeroext i1 @_ZNK10open_spiel13markov_soccer17MarkovSoccerState8InBoundsEii(ptr nocapture noundef nonnull readonly align 8 dereferenceable(144) %0, i32 noundef %1, i32 noundef %2) local_unnamed_addr #7 align 2 {
  %4 = or i32 %2, %1
  %or.cond = icmp sgt i32 %4, -1
  br i1 %or.cond, label %5, label %14

5:                                                ; preds = %3
  %6 = getelementptr inbounds nuw i8, ptr %0, i64 64
  %7 = load ptr, ptr %6, align 8
  %8 = load i32, ptr %7, align 8
  %9 = icmp slt i32 %1, %8
  br i1 %9, label %10, label %14

10:                                               ; preds = %5
  %11 = getelementptr inbounds nuw i8, ptr %7, i64 4
  %12 = load i32, ptr %11, align 4
  %13 = icmp slt i32 %2, %12
  br label %14

14:                                               ; preds = %10, %5, %3
  %15 = phi i1 [ false, %5 ], [ false, %3 ], [ %13, %10 ]
  ret i1 %15
}